#include <math.h>
#include <stdio.h>
#include <stdlib.h>
#include <string.h>

int main()
{
	int i,j,l;
	char s1[100],s2[100],t;
	scanf("%s %s",s1,s2);
	l=strlen(s1);
	for(j=0;j<l-1;j++)
	{
		for(i=0;i<l-1-j;i++)
		{
			if(s1[i]>s1[i+1])
			{
				t=s1[i];s1[i]=s1[i+1];s1[i+1]=t;
			}
		}
	}
	for(j=0;j<l-1;j++)
	{
		for(i=0;i<l-1-j;i++)
		{
			if(s2[i]>s2[i+1])
			{
				t=s2[i];s2[i]=s2[i+1];s2[i+1]=t;
			}
		}
	}
	if(strcmp(s1,s2)==0)
	{
		printf("YES");
	}
	else
	{
		printf("NO");
	}
	return 0;
}



		
	
